target datalayout = "e-m:e-p270:32:32-p271:32:32-p272:64:64-i64:64-i128:128-f80:128-n8:16:32:64-S128"
target triple = "x86_64-pc-linux-gnu"

%"class.cv::rgbd::DepthCleaner" = type { %"class.cv::Algorithm", i32, i32, i32, ptr }
%"class.cv::Algorithm" = type { ptr }

; Function Attrs: mustprogress nounwind uwtable
define void @_ZN2cv4rgbd12DepthCleanerD2Ev(ptr noundef nonnull align 8 dereferenceable(32) %0) unnamed_addr #7 align 2 {
  %2 = alloca ptr, align 8
  %3 = alloca i32, align 4
  store ptr %0, ptr %2, align 8, !tbaa !3
  %4 = load ptr, ptr %2, align 8
  store ptr getelementptr inbounds inrange(-16, 64) ({ [10 x ptr] }, ptr @_ZTVN2cv4rgbd12DepthCleanerE, i32 0, i32 0, i32 2), ptr %4, align 8, !tbaa !10
  %5 = getelementptr inbounds nuw %"class.cv::rgbd::DepthCleaner", ptr %4, i32 0, i32 4
  %6 = load ptr, ptr %5, align 8, !tbaa !17
  %7 = icmp eq ptr %6, null
  br i1 %7, label %8, label %9

8:                                                ; preds = %1
  store i32 1, ptr %3, align 4
  br label %44

9:                                                ; preds = %1
  %10 = getelementptr inbounds nuw %"class.cv::rgbd::DepthCleaner", ptr %4, i32 0, i32 3
  %11 = load i32, ptr %10, align 8, !tbaa !16
  switch i32 %11, label %43 [
    i32 0, label %12
  ]

12:                                               ; preds = %9
  %13 = getelementptr inbounds nuw %"class.cv::rgbd::DepthCleaner", ptr %4, i32 0, i32 1
  %14 = load i32, ptr %13, align 8, !tbaa !12
  switch i32 %14, label %42 [
    i32 2, label %15
    i32 5, label %24
    i32 6, label %33
  ]

15:                                               ; preds = %12
  %16 = getelementptr inbounds nuw %"class.cv::rgbd::DepthCleaner", ptr %4, i32 0, i32 4
  %17 = load ptr, ptr %16, align 8, !tbaa !17
  %18 = icmp eq ptr %17, null
  br i1 %18, label %23, label %19

19:                                               ; preds = %15
  %20 = load ptr, ptr %17, align 8, !tbaa !10
  %21 = getelementptr inbounds ptr, ptr %20, i64 1
  %22 = load ptr, ptr %21, align 8
  call void %22(ptr noundef nonnull align 8 dereferenceable(20) %17) #3
  br label %23

23:                                               ; preds = %19, %15
  br label %42

24:                                               ; preds = %12
  %25 = getelementptr inbounds nuw %"class.cv::rgbd::DepthCleaner", ptr %4, i32 0, i32 4
  %26 = load ptr, ptr %25, align 8, !tbaa !17
  %27 = icmp eq ptr %26, null
  br i1 %27, label %32, label %28

28:                                               ; preds = %24
  %29 = load ptr, ptr %26, align 8, !tbaa !10
  %30 = getelementptr inbounds ptr, ptr %29, i64 1
  %31 = load ptr, ptr %30, align 8
  call void %31(ptr noundef nonnull align 8 dereferenceable(20) %26) #3
  br label %32

32:                                               ; preds = %28, %24
  br label %42

33:                                               ; preds = %12
  %34 = getelementptr inbounds nuw %"class.cv::rgbd::DepthCleaner", ptr %4, i32 0, i32 4
  %35 = load ptr, ptr %34, align 8, !tbaa !17
  %36 = icmp eq ptr %35, null
  br i1 %36, label %41, label %37

37:                                               ; preds = %33
  %38 = load ptr, ptr %35, align 8, !tbaa !10
  %39 = getelementptr inbounds ptr, ptr %38, i64 1
  %40 = load ptr, ptr %39, align 8
  call void %40(ptr noundef nonnull align 8 dereferenceable(20) %35) #3
  br label %41

41:                                               ; preds = %37, %33
  br label %42

42:                                               ; preds = %12, %41, %32, %23
  br label %43

43:                                               ; preds = %9, %42
  store i32 0, ptr %3, align 4
  br label %44

44:                                               ; preds = %43, %8
  call void @_ZN2cv9AlgorithmD2Ev(ptr noundef nonnull align 8 dereferenceable(8) %4) #3
  %45 = load i32, ptr %3, align 4
  switch i32 %45, label %47 [
    i32 0, label %46
    i32 1, label %46
  ]

46:                                               ; preds = %44, %44
  ret void

47:                                               ; preds = %44
  unreachable
}