; Function Attrs: mustprogress nounwind uwtable
define void @_ZN2cv4rgbd12DepthCleanerD2Ev(ptr noundef nonnull align 8 dereferenceable(32) initializes((0, 8)) %0) unnamed_addr #6 align 2 {
  store ptr getelementptr inbounds nuw inrange(-16, 64) (i8, ptr @_ZTVN2cv4rgbd12DepthCleanerE, i64 16), ptr %0, align 8, !tbaa !3
  %2 = getelementptr inbounds nuw i8, ptr %0, i64 24
  %3 = load ptr, ptr %2, align 8, !tbaa !14
  %4 = icmp ne ptr %3, null
  %5 = getelementptr inbounds nuw i8, ptr %0, i64 16
  %6 = load i32, ptr %5, align 8
  %cond = icmp eq i32 %6, 0
  %or.cond = select i1 %4, i1 %cond, i1 false
  br i1 %or.cond, label %7, label %13

7:                                                ; preds = %1
  %8 = getelementptr inbounds nuw i8, ptr %0, i64 8
  %9 = load i32, ptr %8, align 8, !tbaa !6
  switch i32 %9, label %13 [
    i32 2, label %.sink.split
    i32 5, label %.sink.split
    i32 6, label %.sink.split
  ]

.sink.split:                                      ; preds = %7, %7, %7
  %10 = load ptr, ptr %3, align 8, !tbaa !3
  %11 = getelementptr inbounds nuw i8, ptr %10, i64 8
  %12 = load ptr, ptr %11, align 8
  tail call void %12(ptr noundef nonnull align 8 dereferenceable(20) %3) #16
  br label %13

13:                                               ; preds = %.sink.split, %7, %1
  tail call void @_ZN2cv9AlgorithmD2Ev(ptr noundef nonnull align 8 dereferenceable(8) %0) #16
  ret void
}